target datalayout = "e-m:e-p270:32:32-p271:32:32-p272:64:64-i64:64-i128:128-f80:128-n8:16:32:64-S128"
target triple = "x86_64-pc-linux-gnu"

%struct._php_stream_filter_ops = type { ptr, ptr, ptr }
%struct._php_consumed_filter_data = type { i64, i64, i8 }

@consumed_filter_ops = internal constant %struct._php_stream_filter_ops { ptr @consumed_filter_filter, ptr @consumed_filter_dtor, ptr @.str.19 }, align 8
@.str.19 = private unnamed_addr constant [9 x i8] c"consumed\00", align 1

; Function Attrs: nounwind uwtable
define internal ptr @consumed_filter_create(ptr noundef %0, ptr noundef %1, i8 noundef zeroext %2) #0 {
  %4 = alloca ptr, align 8
  %5 = alloca ptr, align 8
  %6 = alloca ptr, align 8
  %7 = alloca i8, align 1
  %8 = alloca ptr, align 8
  %9 = alloca ptr, align 8
  store ptr %0, ptr %5, align 8
  store ptr %1, ptr %6, align 8
  store i8 %2, ptr %7, align 1
  store ptr null, ptr %8, align 8
  %10 = load ptr, ptr %5, align 8
  %11 = call i32 @strcasecmp(ptr noundef %10, ptr noundef @.str.19) #14
  %12 = icmp ne i32 %11, 0
  br i1 %12, label %13, label %14

13:                                               ; preds = %3
  store ptr null, ptr %4, align 8
  br label %35

14:                                               ; preds = %3
  %15 = load i8, ptr %7, align 1
  %16 = zext i8 %15 to i32
  %17 = icmp ne i32 %16, 0
  br i1 %17, label %18, label %20

18:                                               ; preds = %14
  %19 = call noalias ptr @__zend_calloc(i64 noundef 1, i64 noundef 24) #16
  br label %22

20:                                               ; preds = %14
  %21 = call noalias ptr @_ecalloc(i64 noundef 1, i64 noundef 24) #16
  br label %22

22:                                               ; preds = %20, %18
  %23 = phi ptr [ %19, %18 ], [ %21, %20 ]
  store ptr %23, ptr %9, align 8
  %24 = load i8, ptr %7, align 1
  %25 = load ptr, ptr %9, align 8
  %26 = getelementptr inbounds %struct._php_consumed_filter_data, ptr %25, i32 0, i32 2
  store i8 %24, ptr %26, align 8
  %27 = load ptr, ptr %9, align 8
  %28 = getelementptr inbounds %struct._php_consumed_filter_data, ptr %27, i32 0, i32 0
  store i64 0, ptr %28, align 8
  %29 = load ptr, ptr %9, align 8
  %30 = getelementptr inbounds %struct._php_consumed_filter_data, ptr %29, i32 0, i32 1
  store i64 -1, ptr %30, align 8
  store ptr @consumed_filter_ops, ptr %8, align 8
  %31 = load ptr, ptr %8, align 8
  %32 = load ptr, ptr %9, align 8
  %33 = load i8, ptr %7, align 1
  %34 = call ptr @_php_stream_filter_alloc(ptr noundef %31, ptr noundef %32, i8 noundef zeroext %33)
  store ptr %34, ptr %4, align 8
  br label %35

35:                                               ; preds = %22, %13
  %36 = load ptr, ptr %4, align 8
  ret ptr %36
}