; Function Attrs: nounwind uwtable
define internal ptr @consumed_filter_create(ptr nocapture noundef readonly %0, ptr nocapture readnone %1, i8 noundef zeroext %2) #0 {
  %4 = tail call i32 @strcasecmp(ptr noundef %0, ptr noundef nonnull @.str.19) #21
  %.not = icmp eq i32 %4, 0
  br i1 %.not, label %5, label %15

5:                                                ; preds = %3
  %.not9 = icmp eq i8 %2, 0
  br i1 %.not9, label %8, label %6

6:                                                ; preds = %5
  %7 = tail call noalias dereferenceable_or_null(24) ptr @__zend_calloc(i64 noundef 1, i64 noundef 24) #23
  br label %10

8:                                                ; preds = %5
  %9 = tail call noalias dereferenceable_or_null(24) ptr @_ecalloc(i64 noundef 1, i64 noundef 24) #23
  br label %10

10:                                               ; preds = %8, %6
  %11 = phi ptr [ %7, %6 ], [ %9, %8 ]
  %12 = getelementptr inbounds i8, ptr %11, i64 16
  store i8 %2, ptr %12, align 8
  store i64 0, ptr %11, align 8
  %13 = getelementptr inbounds i8, ptr %11, i64 8
  store i64 -1, ptr %13, align 8
  %14 = tail call ptr @_php_stream_filter_alloc(ptr noundef nonnull @consumed_filter_ops, ptr noundef nonnull %11, i8 noundef zeroext %2) #18
  br label %15

15:                                               ; preds = %3, %10
  %.0 = phi ptr [ %14, %10 ], [ null, %3 ]
  ret ptr %.0
}